; Function Attrs: nounwind uwtable
define i32 @exr_get_file_version_and_flags(ptr noundef %0, ptr noundef %1) local_unnamed_addr #0 {
  %.not = icmp eq ptr %0, null
  br i1 %.not, label %32, label %3

3:                                                ; preds = %2
  %4 = load i8, ptr %0, align 8, !tbaa !56
  %5 = icmp eq i8 %4, 1
  br i1 %5, label %6, label %9

6:                                                ; preds = %3
  %7 = getelementptr inbounds nuw i8, ptr %0, i64 504
  %8 = tail call i32 @pthread_mutex_lock(ptr noundef nonnull %7) #13
  br label %9

9:                                                ; preds = %6, %3
  %.not20 = icmp eq ptr %1, null
  br i1 %.not20, label %22, label %10

10:                                               ; preds = %9
  %11 = getelementptr inbounds nuw i8, ptr %0, i64 548
  %12 = load i32, ptr %11, align 4, !tbaa !75
  %.not21 = icmp eq i32 %12, 0
  br i1 %.not21, label %14, label %13

13:                                               ; preds = %10
  store i32 %12, ptr %1, align 4, !tbaa !51
  br label %16

14:                                               ; preds = %10
  %15 = tail call i32 @internal_exr_calc_header_version_flags(ptr noundef nonnull %0, ptr noundef nonnull %1) #13
  br label %16

16:                                               ; preds = %14, %13
  %.0 = phi i32 [ 0, %13 ], [ %15, %14 ]
  %17 = load i8, ptr %0, align 8, !tbaa !56
  %18 = icmp eq i8 %17, 1
  br i1 %18, label %19, label %32

19:                                               ; preds = %16
  %20 = getelementptr inbounds nuw i8, ptr %0, i64 504
  %21 = tail call i32 @pthread_mutex_unlock(ptr noundef nonnull %20) #13
  br label %32

22:                                               ; preds = %9
  %23 = load i8, ptr %0, align 8, !tbaa !56
  %24 = icmp eq i8 %23, 1
  br i1 %24, label %25, label %28

25:                                               ; preds = %22
  %26 = getelementptr inbounds nuw i8, ptr %0, i64 504
  %27 = tail call i32 @pthread_mutex_unlock(ptr noundef nonnull %26) #13
  br label %28

28:                                               ; preds = %25, %22
  %29 = getelementptr inbounds nuw i8, ptr %0, i64 56
  %30 = load ptr, ptr %29, align 8, !tbaa !55
  %31 = tail call i32 %30(ptr noundef nonnull %0, i32 noundef 3) #13
  br label %32

32:                                               ; preds = %16, %19, %2, %28
  %.016 = phi i32 [ %31, %28 ], [ 2, %2 ], [ %.0, %19 ], [ %.0, %16 ]
  ret i32 %.016
}